; Function Attrs: nounwind uwtable
define internal noundef i32 @agent_advertise(ptr readnone captures(none) %0, ptr noundef %1) #0 {
  %.not = icmp eq ptr %1, null
  br i1 %.not, label %6, label %3

3:                                                ; preds = %2
  %4 = tail call ptr @git_user_agent_sanitized() #7
  %5 = tail call i64 @strlen(ptr noundef nonnull dereferenceable(1) %4) #8
  tail call void @strbuf_add(ptr noundef nonnull %1, ptr noundef nonnull %4, i64 noundef %5) #7
  br label %6

6:                                                ; preds = %3, %2
  ret i32 1
}